target datalayout = "e-m:e-p270:32:32-p271:32:32-p272:64:64-i64:64-i128:128-f80:128-n8:16:32:64-S128"
target triple = "x86_64-unknown-linux-gnu"

%"class.llvh::StringRef" = type { ptr, i64 }
%"class.llvh::SMLoc" = type { ptr }
%"class.std::__cxx11::basic_string" = type { %"struct.std::__cxx11::basic_string<char>::_Alloc_hider", i64, %union.anon }
%"struct.std::__cxx11::basic_string<char>::_Alloc_hider" = type { ptr }
%union.anon = type { i64, [8 x i8] }
%"class.llvh::FileCheckPattern" = type { %"class.llvh::SMLoc", %"class.llvh::StringRef", %"class.std::__cxx11::basic_string", %"class.std::vector.3", %"class.std::map", i32, i32 }
%"class.std::vector.3" = type { %"struct.std::_Vector_base.4" }
%"struct.std::_Vector_base.4" = type { %"struct.std::_Vector_base<std::pair<llvh::StringRef, unsigned int>, std::allocator<std::pair<llvh::StringRef, unsigned int>>>::_Vector_impl" }
%"struct.std::_Vector_base<std::pair<llvh::StringRef, unsigned int>, std::allocator<std::pair<llvh::StringRef, unsigned int>>>::_Vector_impl" = type { %"struct.std::_Vector_base<std::pair<llvh::StringRef, unsigned int>, std::allocator<std::pair<llvh::StringRef, unsigned int>>>::_Vector_impl_data" }
%"struct.std::_Vector_base<std::pair<llvh::StringRef, unsigned int>, std::allocator<std::pair<llvh::StringRef, unsigned int>>>::_Vector_impl_data" = type { ptr, ptr, ptr }
%"class.std::map" = type { %"class.std::_Rb_tree" }
%"class.std::_Rb_tree" = type { %"struct.std::_Rb_tree<llvh::StringRef, std::pair<const llvh::StringRef, unsigned int>, std::_Select1st<std::pair<const llvh::StringRef, unsigned int>>, std::less<llvh::StringRef>>::_Rb_tree_impl" }
%"struct.std::_Rb_tree<llvh::StringRef, std::pair<const llvh::StringRef, unsigned int>, std::_Select1st<std::pair<const llvh::StringRef, unsigned int>>, std::less<llvh::StringRef>>::_Rb_tree_impl" = type { %"struct.std::_Rb_tree_key_compare", %"struct.std::_Rb_tree_header" }
%"struct.std::_Rb_tree_key_compare" = type { %"struct.std::less" }
%"struct.std::less" = type { i8 }
%"struct.std::_Rb_tree_header" = type { %"struct.std::_Rb_tree_node_base", i64 }
%"struct.std::_Rb_tree_node_base" = type { i32, ptr, ptr, ptr }

@.str.16 = private unnamed_addr constant [6 x i8] c"@LINE\00", align 1

; Function Attrs: mustprogress nounwind uwtable
define linkonce_odr hidden noundef zeroext i1 @_ZNK4llvh9StringRef12getAsIntegerIiEENSt9enable_ifIXsr3std14numeric_limitsIT_EE9is_signedEbE4typeEjRS3_(ptr noundef nonnull align 8 dereferenceable(16) %this, i32 noundef %Radix, ptr noundef nonnull align 4 dereferenceable(4) %Result) #0 comdat align 2 {
entry:
  %retval = alloca i1, align 1
  %this.addr = alloca ptr, align 8
  %Radix.addr = alloca i32, align 4
  %Result.addr = alloca ptr, align 8
  %LLVal = alloca i64, align 8
  %agg.tmp = alloca %"class.llvh::StringRef", align 8
  store ptr %this, ptr %this.addr, align 8
  store i32 %Radix, ptr %Radix.addr, align 4
  store ptr %Result, ptr %Result.addr, align 8
  %this1 = load ptr, ptr %this.addr, align 8
  call void @llvm.memcpy.p0.p0.i64(ptr align 8 %agg.tmp, ptr align 8 %this1, i64 16, i1 false)
  %0 = load i32, ptr %Radix.addr, align 4
  %1 = getelementptr inbounds { ptr, i64 }, ptr %agg.tmp, i32 0, i32 0
  %2 = load ptr, ptr %1, align 8
  %3 = getelementptr inbounds { ptr, i64 }, ptr %agg.tmp, i32 0, i32 1
  %4 = load i64, ptr %3, align 8
  %call = call noundef zeroext i1 @_ZN4llvh18getAsSignedIntegerENS_9StringRefEjRx(ptr %2, i64 %4, i32 noundef %0, ptr noundef nonnull align 8 dereferenceable(8) %LLVal)
  br i1 %call, label %if.then, label %lor.lhs.false

lor.lhs.false:                                    ; preds = %entry
  %5 = load i64, ptr %LLVal, align 8
  %conv = trunc i64 %5 to i32
  %conv2 = sext i32 %conv to i64
  %6 = load i64, ptr %LLVal, align 8
  %cmp = icmp ne i64 %conv2, %6
  br i1 %cmp, label %if.then, label %if.end

if.then:                                          ; preds = %lor.lhs.false, %entry
  store i1 true, ptr %retval, align 1
  br label %return

if.end:                                           ; preds = %lor.lhs.false
  %7 = load i64, ptr %LLVal, align 8
  %conv3 = trunc i64 %7 to i32
  %8 = load ptr, ptr %Result.addr, align 8
  store i32 %conv3, ptr %8, align 4
  store i1 false, ptr %retval, align 1
  br label %return

return:                                           ; preds = %if.end, %if.then
  %9 = load i1, ptr %retval, align 1
  ret i1 %9
}

; Function Attrs: mustprogress nounwind uwtable
define linkonce_odr hidden noundef signext i8 @_ZNK4llvh9StringRefixEm(ptr noundef nonnull align 8 dereferenceable(16) %this, i64 noundef %Index) #0 comdat align 2 {
entry:
  %this.addr = alloca ptr, align 8
  %Index.addr = alloca i64, align 8
  store ptr %this, ptr %this.addr, align 8
  store i64 %Index, ptr %Index.addr, align 8
  %this1 = load ptr, ptr %this.addr, align 8
  %Data = getelementptr inbounds %"class.llvh::StringRef", ptr %this1, i32 0, i32 0
  %0 = load ptr, ptr %Data, align 8
  %1 = load i64, ptr %Index.addr, align 8
  %arrayidx = getelementptr inbounds i8, ptr %0, i64 %1
  %2 = load i8, ptr %arrayidx, align 1
  ret i8 %2
}

; Function Attrs: mustprogress nounwind uwtable
define linkonce_odr noundef nonnull align 8 dereferenceable(8) ptr @_ZSt3minImERKT_S2_S2_(ptr noundef nonnull align 8 dereferenceable(8) %__a, ptr noundef nonnull align 8 dereferenceable(8) %__b) #0 comdat {
entry:
  %retval = alloca ptr, align 8
  %__a.addr = alloca ptr, align 8
  %__b.addr = alloca ptr, align 8
  store ptr %__a, ptr %__a.addr, align 8
  store ptr %__b, ptr %__b.addr, align 8
  %0 = load ptr, ptr %__b.addr, align 8
  %1 = load i64, ptr %0, align 8
  %2 = load ptr, ptr %__a.addr, align 8
  %3 = load i64, ptr %2, align 8
  %cmp = icmp ult i64 %1, %3
  br i1 %cmp, label %if.then, label %if.end

if.then:                                          ; preds = %entry
  %4 = load ptr, ptr %__b.addr, align 8
  store ptr %4, ptr %retval, align 8
  br label %return

if.end:                                           ; preds = %entry
  %5 = load ptr, ptr %__a.addr, align 8
  store ptr %5, ptr %retval, align 8
  br label %return

return:                                           ; preds = %if.end, %if.then
  %6 = load ptr, ptr %retval, align 8
  ret ptr %6
}

; Function Attrs: mustprogress nounwind uwtable
define hidden noundef zeroext i1 @_ZNK4llvh16FileCheckPattern18EvaluateExpressionENS_9StringRefERNSt7__cxx1112basic_stringIcSt11char_traitsIcESaIcEEE(ptr noundef nonnull align 8 dereferenceable(136) %this, ptr %Expr.coerce0, i64 %Expr.coerce1, ptr noundef nonnull align 8 dereferenceable(32) %Value) #0 align 2 {
entry:
  %retval.i70 = alloca i32, align 4
  %Lhs.addr.i = alloca ptr, align 8
  %Rhs.addr.i = alloca ptr, align 8
  %Length.addr.i = alloca i64, align 8
  %this.addr.i65 = alloca ptr, align 8
  %data.addr.i66 = alloca ptr, align 8
  %length.addr.i67 = alloca i64, align 8
  %this.addr.i62 = alloca ptr, align 8
  %data.addr.i = alloca ptr, align 8
  %length.addr.i = alloca i64, align 8
  %Prefix.i = alloca %"class.llvh::StringRef", align 8
  %this.addr.i56 = alloca ptr, align 8
  %this.addr.i46 = alloca ptr, align 8
  %Str.addr.i47 = alloca ptr, align 8
  %this.addr.i42 = alloca ptr, align 8
  %Str.addr.i = alloca ptr, align 8
  %this.addr.i39 = alloca ptr, align 8
  %retval.i27 = alloca %"class.llvh::StringRef", align 8
  %this.addr.i28 = alloca ptr, align 8
  %Start.addr.i29 = alloca i64, align 8
  %N.addr.i30 = alloca i64, align 8
  %ref.tmp.i31 = alloca i64, align 8
  %retval.i = alloca %"class.llvh::StringRef", align 8
  %this.addr.i24 = alloca ptr, align 8
  %Start.addr.i = alloca i64, align 8
  %N.addr.i = alloca i64, align 8
  %ref.tmp.i = alloca i64, align 8
  %this.addr.i = alloca ptr, align 8
  %retval = alloca i1, align 1
  %Expr = alloca %"class.llvh::StringRef", align 8
  %this.addr = alloca ptr, align 8
  %Value.addr = alloca ptr, align 8
  %agg.tmp = alloca %"class.llvh::StringRef", align 8
  %ref.tmp = alloca %"class.llvh::StringRef", align 8
  %ref.tmp2 = alloca %"class.llvh::StringRef", align 8
  %Offset = alloca i32, align 4
  %ref.tmp9 = alloca %"class.llvh::StringRef", align 8
  %ref.tmp21 = alloca %"class.std::__cxx11::basic_string", align 8
  %0 = getelementptr inbounds { ptr, i64 }, ptr %Expr, i32 0, i32 0
  store ptr %Expr.coerce0, ptr %0, align 8
  %1 = getelementptr inbounds { ptr, i64 }, ptr %Expr, i32 0, i32 1
  store i64 %Expr.coerce1, ptr %1, align 8
  store ptr %this, ptr %this.addr, align 8
  store ptr %Value, ptr %Value.addr, align 8
  %this1 = load ptr, ptr %this.addr, align 8
  store ptr %agg.tmp, ptr %this.addr.i42, align 8
  store ptr @.str.16, ptr %Str.addr.i, align 8
  %this1.i43 = load ptr, ptr %this.addr.i42, align 8
  %2 = load ptr, ptr %Str.addr.i, align 8
  store ptr %2, ptr %this1.i43, align 8
  %Length.i44 = getelementptr inbounds %"class.llvh::StringRef", ptr %this1.i43, i32 0, i32 1
  %3 = load ptr, ptr %Str.addr.i, align 8
  %tobool.i = icmp ne ptr %3, null
  br i1 %tobool.i, label %cond.true.i, label %cond.false.i

cond.true.i:                                      ; preds = %entry
  %4 = load ptr, ptr %Str.addr.i, align 8
  %call.i45 = call i64 @strlen(ptr noundef %4) #12
  br label %_ZN4llvh9StringRefC2EPKc.exit

cond.false.i:                                     ; preds = %entry
  br label %_ZN4llvh9StringRefC2EPKc.exit

_ZN4llvh9StringRefC2EPKc.exit:                    ; preds = %cond.false.i, %cond.true.i
  %cond.i = phi i64 [ %call.i45, %cond.true.i ], [ 0, %cond.false.i ]
  store i64 %cond.i, ptr %Length.i44, align 8
  %5 = getelementptr inbounds { ptr, i64 }, ptr %agg.tmp, i32 0, i32 0
  %6 = load ptr, ptr %5, align 8
  %7 = getelementptr inbounds { ptr, i64 }, ptr %agg.tmp, i32 0, i32 1
  %8 = load i64, ptr %7, align 8
  store ptr %6, ptr %Prefix.i, align 8
  %9 = getelementptr inbounds { ptr, i64 }, ptr %Prefix.i, i32 0, i32 1
  store i64 %8, ptr %9, align 8
  store ptr %Expr, ptr %this.addr.i56, align 8
  %this1.i57 = load ptr, ptr %this.addr.i56, align 8
  %Length.i58 = getelementptr inbounds %"class.llvh::StringRef", ptr %this1.i57, i32 0, i32 1
  %10 = load i64, ptr %Length.i58, align 8
  %Length2.i59 = getelementptr inbounds %"class.llvh::StringRef", ptr %Prefix.i, i32 0, i32 1
  %11 = load i64, ptr %Length2.i59, align 8
  %cmp.i60 = icmp uge i64 %10, %11
  br i1 %cmp.i60, label %land.rhs.i, label %_ZNK4llvh9StringRef10startswithES0_.exit

land.rhs.i:                                       ; preds = %_ZN4llvh9StringRefC2EPKc.exit
  %12 = load ptr, ptr %this1.i57, align 8
  %13 = load ptr, ptr %Prefix.i, align 8
  %Length4.i = getelementptr inbounds %"class.llvh::StringRef", ptr %Prefix.i, i32 0, i32 1
  %14 = load i64, ptr %Length4.i, align 8
  store ptr %12, ptr %Lhs.addr.i, align 8
  store ptr %13, ptr %Rhs.addr.i, align 8
  store i64 %14, ptr %Length.addr.i, align 8
  %15 = load i64, ptr %Length.addr.i, align 8
  %cmp.i71 = icmp eq i64 %15, 0
  br i1 %cmp.i71, label %if.then.i, label %if.end.i

if.then.i:                                        ; preds = %land.rhs.i
  store i32 0, ptr %retval.i70, align 4
  br label %_ZN4llvh9StringRef13compareMemoryEPKcS2_m.exit

if.end.i:                                         ; preds = %land.rhs.i
  %16 = load ptr, ptr %Lhs.addr.i, align 8
  %17 = load ptr, ptr %Rhs.addr.i, align 8
  %18 = load i64, ptr %Length.addr.i, align 8
  %call.i72 = call i32 @memcmp(ptr noundef %16, ptr noundef %17, i64 noundef %18) #12
  store i32 %call.i72, ptr %retval.i70, align 4
  br label %_ZN4llvh9StringRef13compareMemoryEPKcS2_m.exit

_ZN4llvh9StringRef13compareMemoryEPKcS2_m.exit:   ; preds = %if.end.i, %if.then.i
  %19 = load i32, ptr %retval.i70, align 4
  %cmp5.i = icmp eq i32 %19, 0
  br label %_ZNK4llvh9StringRef10startswithES0_.exit

_ZNK4llvh9StringRef10startswithES0_.exit:         ; preds = %_ZN4llvh9StringRef13compareMemoryEPKcS2_m.exit, %_ZN4llvh9StringRefC2EPKc.exit
  %20 = phi i1 [ false, %_ZN4llvh9StringRefC2EPKc.exit ], [ %cmp5.i, %_ZN4llvh9StringRef13compareMemoryEPKcS2_m.exit ]
  br i1 %20, label %if.end, label %if.then

if.then:                                          ; preds = %_ZNK4llvh9StringRef10startswithES0_.exit
  store i1 false, ptr %retval, align 1
  br label %return

if.end:                                           ; preds = %_ZNK4llvh9StringRef10startswithES0_.exit
  store ptr %ref.tmp2, ptr %this.addr.i46, align 8
  store ptr @.str.16, ptr %Str.addr.i47, align 8
  %this1.i48 = load ptr, ptr %this.addr.i46, align 8
  %21 = load ptr, ptr %Str.addr.i47, align 8
  store ptr %21, ptr %this1.i48, align 8
  %Length.i49 = getelementptr inbounds %"class.llvh::StringRef", ptr %this1.i48, i32 0, i32 1
  %22 = load ptr, ptr %Str.addr.i47, align 8
  %tobool.i50 = icmp ne ptr %22, null
  br i1 %tobool.i50, label %cond.true.i53, label %cond.false.i51

cond.true.i53:                                    ; preds = %if.end
  %23 = load ptr, ptr %Str.addr.i47, align 8
  %call.i54 = call i64 @strlen(ptr noundef %23) #12
  br label %_ZN4llvh9StringRefC2EPKc.exit55

cond.false.i51:                                   ; preds = %if.end
  br label %_ZN4llvh9StringRefC2EPKc.exit55

_ZN4llvh9StringRefC2EPKc.exit55:                  ; preds = %cond.false.i51, %cond.true.i53
  %cond.i52 = phi i64 [ %call.i54, %cond.true.i53 ], [ 0, %cond.false.i51 ]
  store i64 %cond.i52, ptr %Length.i49, align 8
  store ptr %ref.tmp2, ptr %this.addr.i39, align 8
  %this1.i40 = load ptr, ptr %this.addr.i39, align 8
  %Length.i41 = getelementptr inbounds %"class.llvh::StringRef", ptr %this1.i40, i32 0, i32 1
  %24 = load i64, ptr %Length.i41, align 8
  store ptr %Expr, ptr %this.addr.i28, align 8
  store i64 %24, ptr %Start.addr.i29, align 8
  store i64 -1, ptr %N.addr.i30, align 8
  %this1.i32 = load ptr, ptr %this.addr.i28, align 8
  %Length.i33 = getelementptr inbounds %"class.llvh::StringRef", ptr %this1.i32, i32 0, i32 1
  %call.i34 = call noundef nonnull align 8 dereferenceable(8) ptr @_ZSt3minImERKT_S2_S2_(ptr noundef nonnull align 8 dereferenceable(8) %Start.addr.i29, ptr noundef nonnull align 8 dereferenceable(8) %Length.i33)
  %25 = load i64, ptr %call.i34, align 8
  store i64 %25, ptr %Start.addr.i29, align 8
  %26 = load ptr, ptr %this1.i32, align 8
  %27 = load i64, ptr %Start.addr.i29, align 8
  %add.ptr.i35 = getelementptr inbounds i8, ptr %26, i64 %27
  %Length2.i36 = getelementptr inbounds %"class.llvh::StringRef", ptr %this1.i32, i32 0, i32 1
  %28 = load i64, ptr %Length2.i36, align 8
  %29 = load i64, ptr %Start.addr.i29, align 8
  %sub.i37 = sub i64 %28, %29
  store i64 %sub.i37, ptr %ref.tmp.i31, align 8
  %call3.i38 = call noundef nonnull align 8 dereferenceable(8) ptr @_ZSt3minImERKT_S2_S2_(ptr noundef nonnull align 8 dereferenceable(8) %N.addr.i30, ptr noundef nonnull align 8 dereferenceable(8) %ref.tmp.i31)
  %30 = load i64, ptr %call3.i38, align 8
  store ptr %retval.i27, ptr %this.addr.i62, align 8
  store ptr %add.ptr.i35, ptr %data.addr.i, align 8
  store i64 %30, ptr %length.addr.i, align 8
  %this1.i63 = load ptr, ptr %this.addr.i62, align 8
  %31 = load ptr, ptr %data.addr.i, align 8
  store ptr %31, ptr %this1.i63, align 8
  %Length.i64 = getelementptr inbounds %"class.llvh::StringRef", ptr %this1.i63, i32 0, i32 1
  %32 = load i64, ptr %length.addr.i, align 8
  store i64 %32, ptr %Length.i64, align 8
  %33 = load { ptr, i64 }, ptr %retval.i27, align 8
  %34 = getelementptr inbounds { ptr, i64 }, ptr %ref.tmp, i32 0, i32 0
  %35 = extractvalue { ptr, i64 } %33, 0
  store ptr %35, ptr %34, align 8
  %36 = getelementptr inbounds { ptr, i64 }, ptr %ref.tmp, i32 0, i32 1
  %37 = extractvalue { ptr, i64 } %33, 1
  store i64 %37, ptr %36, align 8
  call void @llvm.memcpy.p0.p0.i64(ptr align 8 %Expr, ptr align 8 %ref.tmp, i64 16, i1 false)
  store i32 0, ptr %Offset, align 4
  store ptr %Expr, ptr %this.addr.i, align 8
  %this1.i = load ptr, ptr %this.addr.i, align 8
  %Length.i = getelementptr inbounds %"class.llvh::StringRef", ptr %this1.i, i32 0, i32 1
  %38 = load i64, ptr %Length.i, align 8
  %cmp.i = icmp eq i64 %38, 0
  br i1 %cmp.i, label %if.end20, label %if.then6

if.then6:                                         ; preds = %_ZN4llvh9StringRefC2EPKc.exit55
  %call7 = call noundef signext i8 @_ZNK4llvh9StringRefixEm(ptr noundef nonnull align 8 dereferenceable(16) %Expr, i64 noundef 0)
  %conv = sext i8 %call7 to i32
  %cmp = icmp eq i32 %conv, 43
  br i1 %cmp, label %if.then8, label %if.else

if.then8:                                         ; preds = %if.then6
  store ptr %Expr, ptr %this.addr.i24, align 8
  store i64 1, ptr %Start.addr.i, align 8
  store i64 -1, ptr %N.addr.i, align 8
  %this1.i25 = load ptr, ptr %this.addr.i24, align 8
  %Length.i26 = getelementptr inbounds %"class.llvh::StringRef", ptr %this1.i25, i32 0, i32 1
  %call.i = call noundef nonnull align 8 dereferenceable(8) ptr @_ZSt3minImERKT_S2_S2_(ptr noundef nonnull align 8 dereferenceable(8) %Start.addr.i, ptr noundef nonnull align 8 dereferenceable(8) %Length.i26)
  %39 = load i64, ptr %call.i, align 8
  store i64 %39, ptr %Start.addr.i, align 8
  %40 = load ptr, ptr %this1.i25, align 8
  %41 = load i64, ptr %Start.addr.i, align 8
  %add.ptr.i = getelementptr inbounds i8, ptr %40, i64 %41
  %Length2.i = getelementptr inbounds %"class.llvh::StringRef", ptr %this1.i25, i32 0, i32 1
  %42 = load i64, ptr %Length2.i, align 8
  %43 = load i64, ptr %Start.addr.i, align 8
  %sub.i = sub i64 %42, %43
  store i64 %sub.i, ptr %ref.tmp.i, align 8
  %call3.i = call noundef nonnull align 8 dereferenceable(8) ptr @_ZSt3minImERKT_S2_S2_(ptr noundef nonnull align 8 dereferenceable(8) %N.addr.i, ptr noundef nonnull align 8 dereferenceable(8) %ref.tmp.i)
  %44 = load i64, ptr %call3.i, align 8
  store ptr %retval.i, ptr %this.addr.i65, align 8
  store ptr %add.ptr.i, ptr %data.addr.i66, align 8
  store i64 %44, ptr %length.addr.i67, align 8
  %this1.i68 = load ptr, ptr %this.addr.i65, align 8
  %45 = load ptr, ptr %data.addr.i66, align 8
  store ptr %45, ptr %this1.i68, align 8
  %Length.i69 = getelementptr inbounds %"class.llvh::StringRef", ptr %this1.i68, i32 0, i32 1
  %46 = load i64, ptr %length.addr.i67, align 8
  store i64 %46, ptr %Length.i69, align 8
  %47 = load { ptr, i64 }, ptr %retval.i, align 8
  %48 = getelementptr inbounds { ptr, i64 }, ptr %ref.tmp9, i32 0, i32 0
  %49 = extractvalue { ptr, i64 } %47, 0
  store ptr %49, ptr %48, align 8
  %50 = getelementptr inbounds { ptr, i64 }, ptr %ref.tmp9, i32 0, i32 1
  %51 = extractvalue { ptr, i64 } %47, 1
  store i64 %51, ptr %50, align 8
  call void @llvm.memcpy.p0.p0.i64(ptr align 8 %Expr, ptr align 8 %ref.tmp9, i64 16, i1 false)
  br label %if.end16

if.else:                                          ; preds = %if.then6
  %call11 = call noundef signext i8 @_ZNK4llvh9StringRefixEm(ptr noundef nonnull align 8 dereferenceable(16) %Expr, i64 noundef 0)
  %conv12 = sext i8 %call11 to i32
  %cmp13 = icmp ne i32 %conv12, 45
  br i1 %cmp13, label %if.then14, label %if.end15

if.then14:                                        ; preds = %if.else
  store i1 false, ptr %retval, align 1
  br label %return

if.end15:                                         ; preds = %if.else
  br label %if.end16

if.end16:                                         ; preds = %if.end15, %if.then8
  %call17 = call noundef zeroext i1 @_ZNK4llvh9StringRef12getAsIntegerIiEENSt9enable_ifIXsr3std14numeric_limitsIT_EE9is_signedEbE4typeEjRS3_(ptr noundef nonnull align 8 dereferenceable(16) %Expr, i32 noundef 10, ptr noundef nonnull align 4 dereferenceable(4) %Offset)
  br i1 %call17, label %if.then18, label %if.end19

if.then18:                                        ; preds = %if.end16
  store i1 false, ptr %retval, align 1
  br label %return

if.end19:                                         ; preds = %if.end16
  br label %if.end20

if.end20:                                         ; preds = %if.end19, %_ZN4llvh9StringRefC2EPKc.exit55
  %LineNumber = getelementptr inbounds %"class.llvh::FileCheckPattern", ptr %this1, i32 0, i32 6
  %52 = load i32, ptr %LineNumber, align 4
  %53 = load i32, ptr %Offset, align 4
  %add = add i32 %52, %53
  %conv22 = zext i32 %add to i64
  call void @_ZN4llvh6itostrB5cxx11El(ptr sret(%"class.std::__cxx11::basic_string") align 8 %ref.tmp21, i64 noundef %conv22)
  %54 = load ptr, ptr %Value.addr, align 8
  %call23 = call noundef nonnull align 8 dereferenceable(32) ptr @_ZNSt7__cxx1112basic_stringIcSt11char_traitsIcESaIcEEaSEOS4_(ptr noundef nonnull align 8 dereferenceable(32) %54, ptr noundef nonnull align 8 dereferenceable(32) %ref.tmp21) #13
  call void @_ZNSt7__cxx1112basic_stringIcSt11char_traitsIcESaIcEED1Ev(ptr noundef nonnull align 8 dereferenceable(32) %ref.tmp21) #13
  store i1 true, ptr %retval, align 1
  br label %return

return:                                           ; preds = %if.end20, %if.then18, %if.then14, %if.then
  %55 = load i1, ptr %retval, align 1
  ret i1 %55
}