; Function Attrs: mustprogress nounwind uwtable
define hidden noundef zeroext i1 @_ZNK4llvh16FileCheckPattern18EvaluateExpressionENS_9StringRefERNSt7__cxx1112basic_stringIcSt11char_traitsIcESaIcEEE(ptr nocapture noundef nonnull readonly align 8 dereferenceable(136) %this, ptr %Expr.coerce0, i64 %Expr.coerce1, ptr noundef nonnull align 8 dereferenceable(32) %Value) local_unnamed_addr #0 align 2 {
entry:
  %LLVal.i = alloca i64, align 8
  %ref.tmp21 = alloca %"class.std::__cxx11::basic_string", align 8
  %cmp.i60 = icmp ugt i64 %Expr.coerce1, 4
  br i1 %cmp.i60, label %if.end.i, label %return

if.end.i:                                         ; preds = %entry
  %bcmp = tail call i32 @bcmp(ptr noundef nonnull dereferenceable(5) %Expr.coerce0, ptr noundef nonnull dereferenceable(5) @.str.16, i64 5)
  %0 = icmp eq i32 %bcmp, 0
  br i1 %0, label %_ZN4llvh9StringRefC2EPKc.exit55, label %return

_ZN4llvh9StringRefC2EPKc.exit55:                  ; preds = %if.end.i
  %sub.i37 = add i64 %Expr.coerce1, -5
  %cmp.i = icmp eq i64 %sub.i37, 0
  br i1 %cmp.i, label %if.end20, label %if.then6

if.then6:                                         ; preds = %_ZN4llvh9StringRefC2EPKc.exit55
  %add.ptr.i35 = getelementptr inbounds i8, ptr %Expr.coerce0, i64 5
  %1 = load i8, ptr %add.ptr.i35, align 1
  switch i8 %1, label %return [
    i8 43, label %if.then8
    i8 45, label %if.end16
  ]

if.then8:                                         ; preds = %if.then6
  %add.ptr.i = getelementptr inbounds i8, ptr %Expr.coerce0, i64 6
  %sub.i = add i64 %Expr.coerce1, -6
  br label %if.end16

if.end16:                                         ; preds = %if.then6, %if.then8
  %Expr.sroa.9.0 = phi i64 [ %sub.i, %if.then8 ], [ %sub.i37, %if.then6 ]
  %Expr.sroa.0.0 = phi ptr [ %add.ptr.i, %if.then8 ], [ %add.ptr.i35, %if.then6 ]
  call void @llvm.lifetime.start.p0(i64 8, ptr nonnull %LLVal.i)
  %call.i = call noundef zeroext i1 @_ZN4llvh18getAsSignedIntegerENS_9StringRefEjRx(ptr nonnull %Expr.sroa.0.0, i64 %Expr.sroa.9.0, i32 noundef 10, ptr noundef nonnull align 8 dereferenceable(8) %LLVal.i) #18
  br i1 %call.i, label %_ZNK4llvh9StringRef12getAsIntegerIiEENSt9enable_ifIXsr3std14numeric_limitsIT_EE9is_signedEbE4typeEjRS3_.exit.thread, label %lor.lhs.false.i

lor.lhs.false.i:                                  ; preds = %if.end16
  %2 = load i64, ptr %LLVal.i, align 8
  %3 = add i64 %2, 2147483648
  %cmp.not.i = icmp ult i64 %3, 4294967296
  br i1 %cmp.not.i, label %_ZNK4llvh9StringRef12getAsIntegerIiEENSt9enable_ifIXsr3std14numeric_limitsIT_EE9is_signedEbE4typeEjRS3_.exit, label %_ZNK4llvh9StringRef12getAsIntegerIiEENSt9enable_ifIXsr3std14numeric_limitsIT_EE9is_signedEbE4typeEjRS3_.exit.thread

_ZNK4llvh9StringRef12getAsIntegerIiEENSt9enable_ifIXsr3std14numeric_limitsIT_EE9is_signedEbE4typeEjRS3_.exit.thread: ; preds = %lor.lhs.false.i, %if.end16
  call void @llvm.lifetime.end.p0(i64 8, ptr nonnull %LLVal.i)
  br label %return

_ZNK4llvh9StringRef12getAsIntegerIiEENSt9enable_ifIXsr3std14numeric_limitsIT_EE9is_signedEbE4typeEjRS3_.exit: ; preds = %lor.lhs.false.i
  %conv.i = trunc i64 %2 to i32
  call void @llvm.lifetime.end.p0(i64 8, ptr nonnull %LLVal.i)
  br label %if.end20

if.end20:                                         ; preds = %_ZNK4llvh9StringRef12getAsIntegerIiEENSt9enable_ifIXsr3std14numeric_limitsIT_EE9is_signedEbE4typeEjRS3_.exit, %_ZN4llvh9StringRefC2EPKc.exit55
  %Offset.1 = phi i32 [ 0, %_ZN4llvh9StringRefC2EPKc.exit55 ], [ %conv.i, %_ZNK4llvh9StringRef12getAsIntegerIiEENSt9enable_ifIXsr3std14numeric_limitsIT_EE9is_signedEbE4typeEjRS3_.exit ]
  %LineNumber = getelementptr inbounds i8, ptr %this, i64 132
  %4 = load i32, ptr %LineNumber, align 4
  %add = add i32 %4, %Offset.1
  %conv22 = zext i32 %add to i64
  call void @_ZN4llvh6itostrB5cxx11El(ptr nonnull sret(%"class.std::__cxx11::basic_string") align 8 %ref.tmp21, i64 noundef %conv22)
  %call23 = call noundef nonnull align 8 dereferenceable(32) ptr @_ZNSt7__cxx1112basic_stringIcSt11char_traitsIcESaIcEEaSEOS4_(ptr noundef nonnull align 8 dereferenceable(32) %Value, ptr noundef nonnull align 8 dereferenceable(32) %ref.tmp21) #18
  call void @_ZNSt7__cxx1112basic_stringIcSt11char_traitsIcESaIcEED1Ev(ptr noundef nonnull align 8 dereferenceable(32) %ref.tmp21) #18
  br label %return

return:                                           ; preds = %if.then6, %_ZNK4llvh9StringRef12getAsIntegerIiEENSt9enable_ifIXsr3std14numeric_limitsIT_EE9is_signedEbE4typeEjRS3_.exit.thread, %if.end.i, %entry, %if.end20
  %retval.0 = phi i1 [ true, %if.end20 ], [ false, %entry ], [ false, %if.end.i ], [ false, %_ZNK4llvh9StringRef12getAsIntegerIiEENSt9enable_ifIXsr3std14numeric_limitsIT_EE9is_signedEbE4typeEjRS3_.exit.thread ], [ false, %if.then6 ]
  ret i1 %retval.0
}